target datalayout = "e-m:e-p270:32:32-p271:32:32-p272:64:64-i64:64-i128:128-f80:128-n8:16:32:64-S128"
target triple = "x86_64-pc-linux-gnu"

%struct.message = type { ptr, i32, i32, ptr, ptr, ptr, ptr, ptr, ptr, i64, i32, ptr, ptr, ptr, ptr, ptr, i8, i8, i8, i8, ptr }

@.str.13 = private unnamed_addr constant [1 x i8] zeroinitializer, align 1
@.str.80 = private unnamed_addr constant [91 x i8] c"Internal email parse error: message pointer is NULL when trying to get a message argument\0A\00", align 1
@.str.81 = private unnamed_addr constant [87 x i8] c"Internal email parser error: invalid arguments when checking if message has arguments\0A\00", align 1
@.str.82 = private unnamed_addr constant [64 x i8] c"messageHasArgument: no '=' sign found in MIME header '%s' (%s)\0A\00", align 1

; Function Attrs: nounwind uwtable
define internal ptr @messageGetArgument(ptr noundef %0, i64 noundef %1) #0 {
  %3 = alloca ptr, align 8
  %4 = alloca ptr, align 8
  %5 = alloca i64, align 8
  store ptr %0, ptr %4, align 8
  store i64 %1, ptr %5, align 8
  %6 = load ptr, ptr %4, align 8
  %7 = icmp eq ptr %6, null
  br i1 %7, label %8, label %9

8:                                                ; preds = %2
  call void (ptr, ...) @cli_errmsg(ptr noundef @.str.80)
  store ptr @.str.13, ptr %3, align 8
  br label %34

9:                                                ; preds = %2
  %10 = load i64, ptr %5, align 8
  %11 = load ptr, ptr %4, align 8
  %12 = getelementptr inbounds %struct.message, ptr %11, i32 0, i32 9
  %13 = load i64, ptr %12, align 8
  %14 = icmp uge i64 %10, %13
  br i1 %14, label %15, label %16

15:                                               ; preds = %9
  store ptr @.str.13, ptr %3, align 8
  br label %34

16:                                               ; preds = %9
  %17 = load ptr, ptr %4, align 8
  %18 = getelementptr inbounds %struct.message, ptr %17, i32 0, i32 4
  %19 = load ptr, ptr %18, align 8
  %20 = load i64, ptr %5, align 8
  %21 = getelementptr inbounds ptr, ptr %19, i64 %20
  %22 = load ptr, ptr %21, align 8
  %23 = icmp ne ptr %22, null
  br i1 %23, label %24, label %31

24:                                               ; preds = %16
  %25 = load ptr, ptr %4, align 8
  %26 = getelementptr inbounds %struct.message, ptr %25, i32 0, i32 4
  %27 = load ptr, ptr %26, align 8
  %28 = load i64, ptr %5, align 8
  %29 = getelementptr inbounds ptr, ptr %27, i64 %28
  %30 = load ptr, ptr %29, align 8
  br label %32

31:                                               ; preds = %16
  br label %32

32:                                               ; preds = %31, %24
  %33 = phi ptr [ %30, %24 ], [ @.str.13, %31 ]
  store ptr %33, ptr %3, align 8
  br label %34

34:                                               ; preds = %32, %15, %8
  %35 = load ptr, ptr %3, align 8
  ret ptr %35
}

; Function Attrs: nounwind uwtable
define internal i32 @messageHasArgument(ptr noundef %0, ptr noundef %1) #0 {
  %3 = alloca i32, align 4
  %4 = alloca ptr, align 8
  %5 = alloca ptr, align 8
  %6 = alloca i64, align 8
  %7 = alloca i64, align 8
  %8 = alloca ptr, align 8
  store ptr %0, ptr %4, align 8
  store ptr %1, ptr %5, align 8
  %9 = load ptr, ptr %4, align 8
  %10 = icmp eq ptr %9, null
  br i1 %10, label %14, label %11

11:                                               ; preds = %2
  %12 = load ptr, ptr %5, align 8
  %13 = icmp eq ptr %12, null
  br i1 %13, label %14, label %15

14:                                               ; preds = %11, %2
  call void (ptr, ...) @cli_errmsg(ptr noundef @.str.81)
  store i32 0, ptr %3, align 4
  br label %77

15:                                               ; preds = %11
  %16 = load ptr, ptr %5, align 8
  %17 = call i64 @strlen(ptr noundef %16) #13
  store i64 %17, ptr %7, align 8
  store i64 0, ptr %6, align 8
  br label %18

18:                                               ; preds = %73, %15
  %19 = load i64, ptr %6, align 8
  %20 = load ptr, ptr %4, align 8
  %21 = getelementptr inbounds %struct.message, ptr %20, i32 0, i32 9
  %22 = load i64, ptr %21, align 8
  %23 = icmp ult i64 %19, %22
  br i1 %23, label %24, label %76

24:                                               ; preds = %18
  %25 = load ptr, ptr %4, align 8
  %26 = load i64, ptr %6, align 8
  %27 = call ptr @messageGetArgument(ptr noundef %25, i64 noundef %26)
  store ptr %27, ptr %8, align 8
  %28 = load ptr, ptr %8, align 8
  %29 = icmp eq ptr %28, null
  br i1 %29, label %35, label %30

30:                                               ; preds = %24
  %31 = load ptr, ptr %8, align 8
  %32 = load i8, ptr %31, align 1
  %33 = sext i8 %32 to i32
  %34 = icmp eq i32 %33, 0
  br i1 %34, label %35, label %36

35:                                               ; preds = %30, %24
  br label %73

36:                                               ; preds = %30
  %37 = load ptr, ptr %8, align 8
  %38 = load ptr, ptr %5, align 8
  %39 = load i64, ptr %7, align 8
  %40 = call i32 @strncasecmp(ptr noundef %37, ptr noundef %38, i64 noundef %39) #13
  %41 = icmp eq i32 %40, 0
  br i1 %41, label %42, label %72

42:                                               ; preds = %36
  %43 = load ptr, ptr %8, align 8
  %44 = load i64, ptr %7, align 8
  %45 = getelementptr inbounds i8, ptr %43, i64 %44
  store ptr %45, ptr %8, align 8
  br label %46

46:                                               ; preds = %58, %42
  %47 = call ptr @__ctype_b_loc() #12
  %48 = load ptr, ptr %47, align 8
  %49 = load ptr, ptr %8, align 8
  %50 = load i8, ptr %49, align 1
  %51 = sext i8 %50 to i32
  %52 = sext i32 %51 to i64
  %53 = getelementptr inbounds i16, ptr %48, i64 %52
  %54 = load i16, ptr %53, align 2
  %55 = zext i16 %54 to i32
  %56 = and i32 %55, 8192
  %57 = icmp ne i32 %56, 0
  br i1 %57, label %58, label %61

58:                                               ; preds = %46
  %59 = load ptr, ptr %8, align 8
  %60 = getelementptr inbounds i8, ptr %59, i32 1
  store ptr %60, ptr %8, align 8
  br label %46

61:                                               ; preds = %46
  %62 = load ptr, ptr %8, align 8
  %63 = load i8, ptr %62, align 1
  %64 = sext i8 %63 to i32
  %65 = icmp ne i32 %64, 61
  br i1 %65, label %66, label %71

66:                                               ; preds = %61
  %67 = load ptr, ptr %5, align 8
  %68 = load ptr, ptr %4, align 8
  %69 = load i64, ptr %6, align 8
  %70 = call ptr @messageGetArgument(ptr noundef %68, i64 noundef %69)
  call void (ptr, ...) @cli_dbgmsg(ptr noundef @.str.82, ptr noundef %67, ptr noundef %70)
  store i32 0, ptr %3, align 4
  br label %77

71:                                               ; preds = %61
  store i32 1, ptr %3, align 4
  br label %77

72:                                               ; preds = %36
  br label %73

73:                                               ; preds = %72, %35
  %74 = load i64, ptr %6, align 8
  %75 = add i64 %74, 1
  store i64 %75, ptr %6, align 8
  br label %18

76:                                               ; preds = %18
  store i32 0, ptr %3, align 4
  br label %77

77:                                               ; preds = %76, %71, %66, %14
  %78 = load i32, ptr %3, align 4
  ret i32 %78
}