; Function Attrs: nounwind uwtable
define internal fastcc noundef i32 @messageHasArgument(ptr noundef readonly %0, ptr noundef %1) unnamed_addr #2 {
  %3 = icmp eq ptr %0, null
  %4 = icmp eq ptr %1, null
  %or.cond = or i1 %3, %4
  br i1 %or.cond, label %5, label %6

5:                                                ; preds = %2
  tail call void (ptr, ...) @cli_errmsg(ptr noundef nonnull @.str.81) #21
  br label %.loopexit

6:                                                ; preds = %2
  %7 = tail call i64 @strlen(ptr noundef nonnull dereferenceable(1) %1) #23
  %8 = getelementptr inbounds i8, ptr %0, i64 64
  %9 = load i64, ptr %8, align 8
  %.not35 = icmp eq i64 %9, 0
  br i1 %.not35, label %.loopexit, label %.lr.ph

.lr.ph:                                           ; preds = %6
  %10 = getelementptr inbounds i8, ptr %0, i64 24
  %11 = load ptr, ptr %10, align 8
  br label %12

12:                                               ; preds = %.lr.ph, %32
  %.02334 = phi i64 [ 0, %.lr.ph ], [ %33, %32 ]
  %13 = getelementptr inbounds ptr, ptr %11, i64 %.02334
  %14 = load ptr, ptr %13, align 8
  %.not10.i = icmp eq ptr %14, null
  %spec.select.i = select i1 %.not10.i, ptr @.str.13, ptr %14
  %15 = load i8, ptr %spec.select.i, align 1
  %16 = icmp eq i8 %15, 0
  br i1 %16, label %32, label %17

17:                                               ; preds = %12
  %18 = tail call i32 @strncasecmp(ptr noundef nonnull %spec.select.i, ptr noundef %1, i64 noundef %7) #23
  %19 = icmp eq i32 %18, 0
  br i1 %19, label %20, label %32

20:                                               ; preds = %17
  %21 = getelementptr inbounds i8, ptr %spec.select.i, i64 %7
  %22 = tail call ptr @__ctype_b_loc() #22
  %23 = load ptr, ptr %22, align 8
  br label %24

24:                                               ; preds = %24, %20
  %.0 = phi ptr [ %21, %20 ], [ %30, %24 ]
  %25 = load i8, ptr %.0, align 1
  %26 = sext i8 %25 to i64
  %27 = getelementptr inbounds i16, ptr %23, i64 %26
  %28 = load i16, ptr %27, align 2
  %29 = and i16 %28, 8192
  %.not = icmp eq i16 %29, 0
  %30 = getelementptr inbounds i8, ptr %.0, i64 1
  br i1 %.not, label %31, label %24

31:                                               ; preds = %24
  %.not27 = icmp eq i8 %25, 61
  br i1 %.not27, label %.loopexit, label %messageGetArgument.exit32

messageGetArgument.exit32:                        ; preds = %31
  tail call void (ptr, ...) @cli_dbgmsg(ptr noundef nonnull @.str.82, ptr noundef %1, ptr noundef nonnull %spec.select.i) #21
  br label %.loopexit

32:                                               ; preds = %17, %12
  %33 = add nuw i64 %.02334, 1
  %exitcond.not = icmp eq i64 %33, %9
  br i1 %exitcond.not, label %.loopexit, label %12

.loopexit:                                        ; preds = %32, %6, %31, %messageGetArgument.exit32, %5
  %.022 = phi i32 [ 0, %5 ], [ 0, %messageGetArgument.exit32 ], [ 1, %31 ], [ 0, %6 ], [ 0, %32 ]
  ret i32 %.022
}